

Microchip Technology PIC18 LITE Macro Assembler V1.30 build 55553 
                                                                                               Sun Apr 27 19:32:08 2014

Microchip Technology Omniscient Code Generator (Lite mode) build 55553
     1                           	processor	18F4550
     2                           	fnconf	rparam,??,?,0
     3                           	opt	pw 120
     4                           	opt	lm
     5                           	psect	text0,global,reloc=2,class=CODE,delta=1
     6                           	psect	cinit,global,reloc=2,class=CODE,delta=1
     7                           	psect	cstackCOMRAM,global,class=COMRAM,space=1,delta=1
     8                           	psect	text1,global,reloc=2,class=CODE,delta=1
     9                           	psect	intsave_regs,global,class=BIGRAM,space=1,delta=1
    10                           	psect	rparam,global,class=COMRAM,space=1,delta=1
    11  0000                     _ADCON1	set	4033
    12  0000                     _CMCON	set	4020
    13  0000                     _LATA	set	3977
    14  0000                     _LATB	set	3978
    15  0000                     _LATC	set	3979
    16  0000                     _LATD	set	3980
    17  0000                     _LATE	set	3981
    18  0000                     _PORTA	set	3968
    19  0000                     _PORTAbits	set	3968
    20  0000                     _PORTB	set	3969
    21  0000                     _PORTC	set	3970
    22  0000                     _PORTD	set	3971
    23  0000                     _PORTE	set	3972
    24  0000                     _PORTEbits	set	3972
    25  0000                     _TRISA	set	3986
    26  0000                     _TRISCbits	set	3988
    27  0000                     _TRISD	set	3989
    28  0000                     _TRISE	set	3990
    29                           
    30                           ; 0 bytes @ 0x0
    31 ;;
    32 ;;Main: autosize = 0, tempsize = 0, incstack = 0, save=0
    33 ;;
    34 ;; *************** function _main *****************
    35 ;; Defined at:
    36 ;;		line 27 in file "main.c"
    37 ;; Parameters:    Size  Location     Type
    38 ;;		None
    39 ;; Auto vars:     Size  Location     Type
    40 ;;		None
    41 ;; Return value:  Size  Location     Type
    42 ;;		None               void
    43 ;; Registers used:
    44 ;;		wreg, status,2, cstack
    45 ;; Tracked objects:
    46 ;;		On entry : 0/0
    47 ;;		On exit  : 0/0
    48 ;;		Unchanged: 0/0
    49 ;; Data sizes:     COMRAM   BANK0   BANK1   BANK2   BANK3   BANK4   BANK5   BANK6   BANK7
    50 ;;      Params:         0       0       0       0       0       0       0       0       0
    51 ;;      Locals:         0       0       0       0       0       0       0       0       0
    52 ;;      Temps:          0       0       0       0       0       0       0       0       0
    53 ;;      Totals:         0       0       0       0       0       0       0       0       0
    54 ;;Total ram usage:        0 bytes
    55 ;; Hardware stack levels required when called:    1
    56 ;; This function calls:
    57 ;;		_pic_ini
    58 ;; This function is called by:
    59 ;;		Startup code after reset
    60 ;; This function uses a non-reentrant model
    61 ;;
    62                           
    63                           	psect	text0
    64  007FB8                     __ptext0:
    65                           	opt stack 0
    66  007FB8                     _main:
    67                           	opt stack 30
    68                           
    69                           ;main.c: 28: pic_ini();
    70                           
    71                           ;incstack = 0
    72  007FB8  ECDF  F03F         	call	_pic_ini	;wreg free
    73  007FBC                     l5:
    74  007FBC  D7FF               	goto	l5
    75  007FBE                     __end_of_main:
    76                           	opt stack 0
    77                           
    78                           	psect	cinit
    79  002008                     __pcinit:
    80                           	opt stack 0
    81  002008                     start_initialization:
    82                           	opt stack 0
    83  002008                     __initialization:
    84                           	opt stack 0
    85  002008                     end_of_initialization:
    86                           	opt stack 0
    87  002008                     __end_of__initialization:
    88                           	opt stack 0
    89  002008  0E00               	movlw	low (__Lmediumconst shr (0+16))
    90  00200A  6EF8               	movwf	tblptru,c
    91  00200C  0100               	movlb	0
    92  00200E  EFDC  F03F         	goto	_main	;jump to C main() function
    93                           tblptru	equ	0xFF8
    94                           
    95                           	psect	cstackCOMRAM
    96  000000                     __pcstackCOMRAM:
    97                           	opt stack 0
    98  000000                     tblptru	equ	0xFF8
    99                           
   100 ;; *************** function _pic_ini *****************
   101 ;; Defined at:
   102 ;;		line 5 in file "Ap_ini.c"
   103 ;; Parameters:    Size  Location     Type
   104 ;;		None
   105 ;; Auto vars:     Size  Location     Type
   106 ;;		None
   107 ;; Return value:  Size  Location     Type
   108 ;;		None               void
   109 ;; Registers used:
   110 ;;		wreg, status,2
   111 ;; Tracked objects:
   112 ;;		On entry : 0/0
   113 ;;		On exit  : 0/0
   114 ;;		Unchanged: 0/0
   115 ;; Data sizes:     COMRAM   BANK0   BANK1   BANK2   BANK3   BANK4   BANK5   BANK6   BANK7
   116 ;;      Params:         0       0       0       0       0       0       0       0       0
   117 ;;      Locals:         0       0       0       0       0       0       0       0       0
   118 ;;      Temps:          0       0       0       0       0       0       0       0       0
   119 ;;      Totals:         0       0       0       0       0       0       0       0       0
   120 ;;Total ram usage:        0 bytes
   121 ;; Hardware stack levels used:    1
   122 ;; This function calls:
   123 ;;		Nothing
   124 ;; This function is called by:
   125 ;;		_main
   126 ;; This function uses a non-reentrant model
   127 ;;
   128                           
   129                           	psect	text1
   130  007FBE                     __ptext1:
   131                           	opt stack 0
   132  007FBE                     _pic_ini:
   133                           	opt stack 30
   134                           
   135                           ;Ap_ini.c: 8: LATA = 0x00;
   136                           
   137                           ;incstack = 0
   138  007FBE  0E00               	movlw	0
   139  007FC0  6E89               	movwf	3977,c	;volatile
   140                           
   141                           ;Ap_ini.c: 9: LATB = 0x00;
   142  007FC2  0E00               	movlw	0
   143  007FC4  6E8A               	movwf	3978,c	;volatile
   144                           
   145                           ;Ap_ini.c: 10: LATC = 0x00;
   146  007FC6  0E00               	movlw	0
   147  007FC8  6E8B               	movwf	3979,c	;volatile
   148                           
   149                           ;Ap_ini.c: 11: LATD = 0x00;
   150  007FCA  0E00               	movlw	0
   151  007FCC  6E8C               	movwf	3980,c	;volatile
   152                           
   153                           ;Ap_ini.c: 12: LATE = 0x00;
   154  007FCE  0E00               	movlw	0
   155  007FD0  6E8D               	movwf	3981,c	;volatile
   156                           
   157                           ;Ap_ini.c: 14: PORTA = 0x00;
   158  007FD2  0E00               	movlw	0
   159  007FD4  6E80               	movwf	3968,c	;volatile
   160                           
   161                           ;Ap_ini.c: 15: PORTB = 0x00;
   162  007FD6  0E00               	movlw	0
   163  007FD8  6E81               	movwf	3969,c	;volatile
   164                           
   165                           ;Ap_ini.c: 16: PORTC = 0x00;
   166  007FDA  0E00               	movlw	0
   167  007FDC  6E82               	movwf	3970,c	;volatile
   168                           
   169                           ;Ap_ini.c: 17: PORTD = 0x00;
   170  007FDE  0E00               	movlw	0
   171  007FE0  6E83               	movwf	3971,c	;volatile
   172                           
   173                           ;Ap_ini.c: 18: PORTE = 0x00;
   174  007FE2  0E00               	movlw	0
   175  007FE4  6E84               	movwf	3972,c	;volatile
   176                           
   177                           ;Ap_ini.c: 22: TRISD = 0xF0;
   178  007FE6  0EF0               	movlw	240
   179  007FE8  6E95               	movwf	3989,c	;volatile
   180                           
   181                           ;Ap_ini.c: 23: TRISCbits.RC6 = 0;
   182  007FEA  9C94               	bcf	3988,6,c	;volatile
   183                           
   184                           ;Ap_ini.c: 24: TRISCbits.RC7 = 0;
   185  007FEC  9E94               	bcf	3988,7,c	;volatile
   186                           
   187                           ;Ap_ini.c: 28: CMCON = 0x07;
   188  007FEE  0E07               	movlw	7
   189  007FF0  6EB4               	movwf	4020,c	;volatile
   190                           
   191                           ;Ap_ini.c: 29: ADCON1 = 0x0F;
   192  007FF2  0E0F               	movlw	15
   193  007FF4  6EC1               	movwf	4033,c	;volatile
   194                           
   195                           ;Ap_ini.c: 30: TRISA = 0xC0;
   196  007FF6  0EC0               	movlw	192
   197  007FF8  6E92               	movwf	3986,c	;volatile
   198                           
   199                           ;Ap_ini.c: 31: TRISE = 0x00;
   200  007FFA  0E00               	movlw	0
   201  007FFC  6E96               	movwf	3990,c	;volatile
   202  007FFE  0012               	return	
   203  008000                     __end_of_pic_ini:
   204                           	opt stack 0
   205  0000                     tblptru	equ	0xFF8
   206                           tblptru	equ	0xFF8
   207                           
   208                           	psect	rparam
   209  0000                     tblptru	equ	0xFF8


Data Sizes:
    Strings     0
    Constant    0
    Data        0
    BSS         0
    Persistent  0
    Stack       0

Auto Spaces:
    Space          Size  Autos    Used
    COMRAM           95      0       0
    BANK0           160      0       0
    BANK1           256      0       0
    BANK2           256      0       0
    BANK3           256      0       0
    BANK4           256      0       0
    BANK5           256      0       0
    BANK6           256      0       0
    BANK7           256      0       0

Pointer List with Targets:

    None.

Critical Paths under _main in COMRAM

    None.

Critical Paths under _main in BANK0

    None.

Critical Paths under _main in BANK1

    None.

Critical Paths under _main in BANK2

    None.

Critical Paths under _main in BANK3

    None.

Critical Paths under _main in BANK4

    None.

Critical Paths under _main in BANK5

    None.

Critical Paths under _main in BANK6

    None.

Critical Paths under _main in BANK7

    None.

Call Graph Tables:

 ---------------------------------------------------------------------------------
 (Depth) Function   	        Calls       Base Space   Used Autos Params    Refs
 ---------------------------------------------------------------------------------
 (0) _main                                                 0     0      0       0
                            _pic_ini
 ---------------------------------------------------------------------------------
 (1) _pic_ini                                              0     0      0       0
 ---------------------------------------------------------------------------------
 Estimated maximum stack depth 1
 ---------------------------------------------------------------------------------

 Call Graph Graphs:

 _main (ROOT)
   _pic_ini

 Address spaces:
Name               Size   Autos  Total    Cost      Usage
BITCOMRAM           5F      0       0       0        0.0%
EEDATA             100      0       0       0        0.0%
NULL                 0      0       0       0        0.0%
CODE                 0      0       0       0        0.0%
COMRAM              5F      0       0       1        0.0%
STACK                0      0       0       2        0.0%
DATA                 0      0       0       3        0.0%
BITBANK0            A0      0       0       4        0.0%
BANK0               A0      0       0       5        0.0%
BITBANK1           100      0       0       6        0.0%
BANK1              100      0       0       7        0.0%
BITBANK2           100      0       0       8        0.0%
BANK2              100      0       0       9        0.0%
BITBANK3           100      0       0      10        0.0%
BANK3              100      0       0      11        0.0%
BITBANK4           100      0       0      12        0.0%
BANK4              100      0       0      13        0.0%
BITBANK5           100      0       0      14        0.0%
BANK5              100      0       0      15        0.0%
BITBANK6           100      0       0      16        0.0%
BANK6              100      0       0      17        0.0%
BITBANK7           100      0       0      18        0.0%
BANK7              100      0       0      19        0.0%
ABS                  0      0       0      20        0.0%
BIGRAM             7FF      0       0      21        0.0%
BITSFR               0      0       0      40        0.0%
SFR                  0      0       0      40        0.0%


Microchip Technology PIC18 Macro Assembler V1.30 build 55553 
Symbol Table                                                                                   Sun Apr 27 19:32:08 2014

                      l5 7FBC              __CFG_BOR$ON 000000              __CFG_BORV$3 000000  
           __CFG_CP0$OFF 000000             __CFG_CP1$OFF 000000             __CFG_CPB$OFF 000000  
           __CFG_LVP$OFF 000000             __CFG_WDT$OFF 000000                     _LATA 000F89  
                   _LATB 000F8A                     _LATC 000F8B                     _LATD 000F8C  
                   _LATE 000F8D                     _main 7FB8                     start 2000  
          __CFG_IESO$OFF 000000            __CFG_MCLRE$ON 000000            __CFG_PLLDIV$5 000000  
                  ?_main 0000                    _CMCON 000FB4                    _PORTA 000F80  
                  _PORTB 000F81                    _PORTC 000F82                    _PORTD 000F83  
                  _PORTE 000F84            __CFG_USBDIV$2 000000                    _TRISA 000F92  
                  _TRISD 000F95                    _TRISE 000F96            __CFG_PWRT$OFF 000000  
          __CFG_WRT0$OFF 000000            __CFG_WRT1$OFF 000000           __CFG_EBTR0$OFF 000000  
         __CFG_FCMEN$OFF 000000           __CFG_EBTR1$OFF 000000            __CFG_WRTB$OFF 000000  
          __CFG_WRTC$OFF 000000           __CFG_EBTRB$OFF 000000          __end_of_pic_ini 8000  
        __initialization 2008             __end_of_main 7FBE                   ??_main 0000  
          __activetblptr 000002                   _ADCON1 000FC1           __CFG_VREGEN$ON 000000  
         __CFG_XINST$OFF 000000           __CFG_STVREN$ON 000000                ??_pic_ini 0000  
                 tblptru 000FF8               __accesstop 0060  __end_of__initialization 2008  
        __CFG_PBADEN$OFF 000000           __pcstackCOMRAM 0000                  __Hparam 0000  
                __Lparam 0000                  __pcinit 2008                  __ramtop 0800  
                __ptext0 7FB8                  __ptext1 7FBE                  _pic_ini 7FBE  
   end_of_initialization 2008            __Lmediumconst 0000                _PORTAbits 000F80  
              _PORTEbits 000F84                _TRISCbits 000F94      start_initialization 2008  
       __CFG_LPT1OSC$OFF 000000                 ?_pic_ini 0000         __CFG_WDTPS$32768 000000  
               __Hrparam 0000                 __Lrparam 0000         __size_of_pic_ini 0042  
          __size_of_main 0006    __CFG_CPUDIV$OSC1_PLL2 000000       __CFG_FOSC$HSPLL_HS 000000  
